; Function Attrs: nounwind uwtable
define ptr @l_Lean_Elab_Tactic_SolveByElim_evalApplyRules___lambda__1___boxed(ptr noundef %0, ptr noundef %1, ptr noundef %2, ptr noundef %3, ptr noundef %4, ptr noundef %5, ptr noundef %6, ptr noundef %7, ptr noundef %8, ptr noundef %9, ptr noundef %10, ptr noundef %11, ptr noundef %12, ptr noundef %13, ptr noundef %14) #0 {
  %16 = ptrtoint ptr %2 to i64
  %17 = lshr i64 %16, 1
  %18 = trunc i64 %17 to i8
  %19 = and i64 %16, 1
  %.not = icmp eq i64 %19, 0
  br i1 %.not, label %20, label %lean_dec.exit26

20:                                               ; preds = %15
  %21 = load i32, ptr %2, align 4, !tbaa !8
  %22 = icmp sgt i32 %21, 1
  br i1 %22, label %23, label %25, !prof !11

23:                                               ; preds = %20
  %24 = add nsw i32 %21, -1
  store i32 %24, ptr %2, align 4, !tbaa !8
  br label %lean_dec.exit26

25:                                               ; preds = %20
  %.not.i = icmp eq i32 %21, 0
  br i1 %.not.i, label %lean_dec.exit26, label %26

26:                                               ; preds = %25
  tail call void @lean_dec_ref_cold(ptr noundef nonnull %2) #4
  br label %lean_dec.exit26

lean_dec.exit26:                                  ; preds = %26, %25, %23, %15
  %27 = tail call ptr @l_Lean_Elab_Tactic_SolveByElim_evalApplyRules___lambda__1(ptr noundef %0, ptr noundef %1, i8 noundef zeroext %18, ptr noundef %3, ptr noundef %4, ptr noundef %5, ptr noundef %6, ptr noundef %7, ptr noundef %8, ptr noundef %9, ptr noundef %10, ptr noundef %11, ptr noundef %12, ptr noundef %13, ptr noundef %14)
  %28 = ptrtoint ptr %9 to i64
  %29 = and i64 %28, 1
  %.not37 = icmp eq i64 %29, 0
  br i1 %.not37, label %30, label %lean_dec.exit25

30:                                               ; preds = %lean_dec.exit26
  %31 = load i32, ptr %9, align 4, !tbaa !8
  %32 = icmp sgt i32 %31, 1
  br i1 %32, label %33, label %35, !prof !11

33:                                               ; preds = %30
  %34 = add nsw i32 %31, -1
  store i32 %34, ptr %9, align 4, !tbaa !8
  br label %lean_dec.exit25

35:                                               ; preds = %30
  %.not.i27 = icmp eq i32 %31, 0
  br i1 %.not.i27, label %lean_dec.exit25, label %36

36:                                               ; preds = %35
  tail call void @lean_dec_ref_cold(ptr noundef nonnull %9) #4
  br label %lean_dec.exit25

lean_dec.exit25:                                  ; preds = %36, %35, %33, %lean_dec.exit26
  %37 = ptrtoint ptr %8 to i64
  %38 = and i64 %37, 1
  %.not38 = icmp eq i64 %38, 0
  br i1 %.not38, label %39, label %lean_dec.exit24

39:                                               ; preds = %lean_dec.exit25
  %40 = load i32, ptr %8, align 4, !tbaa !8
  %41 = icmp sgt i32 %40, 1
  br i1 %41, label %42, label %44, !prof !11

42:                                               ; preds = %39
  %43 = add nsw i32 %40, -1
  store i32 %43, ptr %8, align 4, !tbaa !8
  br label %lean_dec.exit24

44:                                               ; preds = %39
  %.not.i29 = icmp eq i32 %40, 0
  br i1 %.not.i29, label %lean_dec.exit24, label %45

45:                                               ; preds = %44
  tail call void @lean_dec_ref_cold(ptr noundef nonnull %8) #4
  br label %lean_dec.exit24

lean_dec.exit24:                                  ; preds = %45, %44, %42, %lean_dec.exit25
  %46 = ptrtoint ptr %7 to i64
  %47 = and i64 %46, 1
  %.not39 = icmp eq i64 %47, 0
  br i1 %.not39, label %48, label %lean_dec.exit23

48:                                               ; preds = %lean_dec.exit24
  %49 = load i32, ptr %7, align 4, !tbaa !8
  %50 = icmp sgt i32 %49, 1
  br i1 %50, label %51, label %53, !prof !11

51:                                               ; preds = %48
  %52 = add nsw i32 %49, -1
  store i32 %52, ptr %7, align 4, !tbaa !8
  br label %lean_dec.exit23

53:                                               ; preds = %48
  %.not.i31 = icmp eq i32 %49, 0
  br i1 %.not.i31, label %lean_dec.exit23, label %54

54:                                               ; preds = %53
  tail call void @lean_dec_ref_cold(ptr noundef nonnull %7) #4
  br label %lean_dec.exit23

lean_dec.exit23:                                  ; preds = %54, %53, %51, %lean_dec.exit24
  %55 = ptrtoint ptr %6 to i64
  %56 = and i64 %55, 1
  %.not40 = icmp eq i64 %56, 0
  br i1 %.not40, label %57, label %lean_dec.exit22

57:                                               ; preds = %lean_dec.exit23
  %58 = load i32, ptr %6, align 4, !tbaa !8
  %59 = icmp sgt i32 %58, 1
  br i1 %59, label %60, label %62, !prof !11

60:                                               ; preds = %57
  %61 = add nsw i32 %58, -1
  store i32 %61, ptr %6, align 4, !tbaa !8
  br label %lean_dec.exit22

62:                                               ; preds = %57
  %.not.i33 = icmp eq i32 %58, 0
  br i1 %.not.i33, label %lean_dec.exit22, label %63

63:                                               ; preds = %62
  tail call void @lean_dec_ref_cold(ptr noundef nonnull %6) #4
  br label %lean_dec.exit22

lean_dec.exit22:                                  ; preds = %63, %62, %60, %lean_dec.exit23
  %64 = ptrtoint ptr %0 to i64
  %65 = and i64 %64, 1
  %.not41 = icmp eq i64 %65, 0
  br i1 %.not41, label %66, label %lean_dec.exit

66:                                               ; preds = %lean_dec.exit22
  %67 = load i32, ptr %0, align 4, !tbaa !8
  %68 = icmp sgt i32 %67, 1
  br i1 %68, label %69, label %71, !prof !11

69:                                               ; preds = %66
  %70 = add nsw i32 %67, -1
  store i32 %70, ptr %0, align 4, !tbaa !8
  br label %lean_dec.exit

71:                                               ; preds = %66
  %.not.i35 = icmp eq i32 %67, 0
  br i1 %.not.i35, label %lean_dec.exit, label %72

72:                                               ; preds = %71
  tail call void @lean_dec_ref_cold(ptr noundef nonnull %0) #4
  br label %lean_dec.exit

lean_dec.exit:                                    ; preds = %72, %71, %69, %lean_dec.exit22
  ret ptr %27
}